target datalayout = "e-m:e-p270:32:32-p271:32:32-p272:64:64-i64:64-i128:128-f80:128-n8:16:32:64-S128"
target triple = "x86_64-pc-linux-gnu"

%"class.std::__cxx11::basic_string" = type { %"struct.std::__cxx11::basic_string<char>::_Alloc_hider", i64, %union.anon }
%"struct.std::__cxx11::basic_string<char>::_Alloc_hider" = type { ptr }
%union.anon = type { i64, [8 x i8] }
%"class.cvc5::internal::smt::PreprocessProofGenerator" = type { %"class.cvc5::internal::EnvObj", %"class.cvc5::internal::ProofGenerator", %"class.cvc5::context::Context", ptr, %"class.cvc5::context::CDHashMap", %"class.cvc5::internal::CDProofSet", %"class.cvc5::internal::CDProof", %"class.cvc5::internal::CDProof", %"class.std::__cxx11::basic_string" }
%"class.cvc5::internal::EnvObj" = type { ptr, ptr }
%"class.cvc5::internal::ProofGenerator" = type { ptr }
%"class.cvc5::context::Context" = type { ptr, %"class.std::vector", ptr, ptr }
%"class.std::vector" = type { %"struct.std::_Vector_base" }
%"struct.std::_Vector_base" = type { %"struct.std::_Vector_base<cvc5::context::Scope *, std::allocator<cvc5::context::Scope *>>::_Vector_impl" }
%"struct.std::_Vector_base<cvc5::context::Scope *, std::allocator<cvc5::context::Scope *>>::_Vector_impl" = type { %"struct.std::_Vector_base<cvc5::context::Scope *, std::allocator<cvc5::context::Scope *>>::_Vector_impl_data" }
%"struct.std::_Vector_base<cvc5::context::Scope *, std::allocator<cvc5::context::Scope *>>::_Vector_impl_data" = type { ptr, ptr, ptr }
%"class.cvc5::context::CDHashMap" = type { %"class.cvc5::context::ContextObj", %"class.std::unordered_map", ptr, ptr }
%"class.cvc5::context::ContextObj" = type { ptr, ptr, ptr, ptr, ptr }
%"class.std::unordered_map" = type { %"class.std::_Hashtable" }
%"class.std::_Hashtable" = type { ptr, i64, %"struct.std::__detail::_Hash_node_base", i64, %"struct.std::__detail::_Prime_rehash_policy", ptr }
%"struct.std::__detail::_Hash_node_base" = type { ptr }
%"struct.std::__detail::_Prime_rehash_policy" = type { float, i64 }
%"class.cvc5::internal::CDProofSet" = type { ptr, %"class.cvc5::context::CDList", %"class.std::__cxx11::basic_string" }
%"class.cvc5::context::CDList" = type <{ %"class.cvc5::context::ContextObj", %"class.std::vector.8", i64, i8, [7 x i8] }>
%"class.std::vector.8" = type { %"struct.std::_Vector_base.9" }
%"struct.std::_Vector_base.9" = type { %"struct.std::_Vector_base<std::shared_ptr<cvc5::internal::LazyCDProof>, std::allocator<std::shared_ptr<cvc5::internal::LazyCDProof>>>::_Vector_impl" }
%"struct.std::_Vector_base<std::shared_ptr<cvc5::internal::LazyCDProof>, std::allocator<std::shared_ptr<cvc5::internal::LazyCDProof>>>::_Vector_impl" = type { %"struct.std::_Vector_base<std::shared_ptr<cvc5::internal::LazyCDProof>, std::allocator<std::shared_ptr<cvc5::internal::LazyCDProof>>>::_Vector_impl_data" }
%"struct.std::_Vector_base<std::shared_ptr<cvc5::internal::LazyCDProof>, std::allocator<std::shared_ptr<cvc5::internal::LazyCDProof>>>::_Vector_impl_data" = type { ptr, ptr, ptr }
%"class.cvc5::internal::CDProof" = type <{ %"class.cvc5::internal::EnvObj", %"class.cvc5::internal::ProofGenerator", %"class.cvc5::context::Context", %"class.cvc5::context::CDHashMap.13", %"class.std::__cxx11::basic_string", i8, [7 x i8] }>
%"class.cvc5::context::CDHashMap.13" = type { %"class.cvc5::context::ContextObj", %"class.std::unordered_map.14", ptr, ptr }
%"class.std::unordered_map.14" = type { %"class.std::_Hashtable.15" }
%"class.std::_Hashtable.15" = type { ptr, i64, %"struct.std::__detail::_Hash_node_base", i64, %"struct.std::__detail::_Prime_rehash_policy", ptr }

; Function Attrs: mustprogress uwtable
define hidden noundef ptr @_ZN4cvc58internal3smt24PreprocessProofGenerator19allocateHelperProofEv(ptr noundef nonnull align 8 dereferenceable(792) %0) #4 align 2 {
  %2 = alloca ptr, align 8
  %3 = alloca ptr, align 8
  store ptr %0, ptr %2, align 8, !tbaa !3
  %4 = load ptr, ptr %2, align 8
  %5 = getelementptr inbounds nuw %"class.cvc5::internal::smt::PreprocessProofGenerator", ptr %4, i32 0, i32 5
  call void @llvm.lifetime.start.p0(i64 8, ptr %3) #3
  store ptr null, ptr %3, align 8, !tbaa !124
  %6 = getelementptr inbounds nuw %"class.cvc5::internal::smt::PreprocessProofGenerator", ptr %4, i32 0, i32 3
  %7 = call noundef ptr @_ZN4cvc58internal10CDProofSetINS0_11LazyCDProofEE13allocateProofIJDnRPNS_7context7ContextEEEEPS2_DpOT_(ptr noundef nonnull align 8 dereferenceable(120) %5, ptr noundef nonnull align 8 dereferenceable(8) %3, ptr noundef nonnull align 8 dereferenceable(8) %6)
  call void @llvm.lifetime.end.p0(i64 8, ptr %3) #3
  ret ptr %7
}