; Function Attrs: mustprogress uwtable
define hidden noundef ptr @_ZN4cvc58internal3smt24PreprocessProofGenerator19allocateHelperProofEv(ptr noundef nonnull align 8 dereferenceable(792) %0) local_unnamed_addr #3 align 2 {
  %2 = alloca ptr, align 8
  %3 = getelementptr inbounds nuw i8, ptr %0, i64 192
  call void @llvm.lifetime.start.p0(i64 8, ptr nonnull %2) #24
  store ptr null, ptr %2, align 8, !tbaa !152
  %4 = getelementptr inbounds nuw i8, ptr %0, i64 72
  %5 = call noundef ptr @_ZN4cvc58internal10CDProofSetINS0_11LazyCDProofEE13allocateProofIJDnRPNS_7context7ContextEEEEPS2_DpOT_(ptr noundef nonnull align 8 dereferenceable(120) %3, ptr noundef nonnull align 8 dereferenceable(8) %2, ptr noundef nonnull align 8 dereferenceable(8) %4)
  call void @llvm.lifetime.end.p0(i64 8, ptr nonnull %2) #24
  ret ptr %5
}